target datalayout = "e-m:e-p270:32:32-p271:32:32-p272:64:64-i64:64-i128:128-f80:128-n8:16:32:64-S128"
target triple = "x86_64-pc-linux-gnu"

%"class.cv::utils::trace::details::Region" = type <{ ptr, i32, [4 x i8] }>
%"class.cv::Range" = type { i32, i32 }
%"class.cv::ParallelLoopBody" = type { ptr }
%"struct.cv::hal::cpu_baseline::(anonymous namespace)::Gray2RGB.5" = type { i32 }
%"class.cv::impl::(anonymous namespace)::CvtColorLoop_Invoker.22" = type { %"class.cv::ParallelLoopBody", ptr, i64, ptr, i64, i32, ptr }

; Function Attrs: mustprogress nounwind uwtable
define linkonce_odr hidden noundef zeroext i16 @_ZNSt14numeric_limitsItE3maxEv() #2 comdat align 2 {
  ret i16 -1
}

; Function Attrs: mustprogress nounwind uwtable
define internal noundef zeroext i16 @_ZN2cv4impl12_GLOBAL__N_112ColorChannelItE3maxEv() #2 align 2 {
  %1 = call noundef zeroext i16 @_ZNSt14numeric_limitsItE3maxEv() #10
  ret i16 %1
}

; Function Attrs: mustprogress nounwind uwtable
define linkonce_odr hidden void @_ZN2cv5utils5trace7details6RegionD2Ev(ptr noundef nonnull align 8 dereferenceable(12) %0) unnamed_addr #2 comdat align 2 personality ptr @__gxx_personality_v0 {
  %2 = alloca ptr, align 8
  store ptr %0, ptr %2, align 8
  %3 = load ptr, ptr %2, align 8
  %4 = getelementptr inbounds %"class.cv::utils::trace::details::Region", ptr %3, i32 0, i32 1
  %5 = load i32, ptr %4, align 8
  %6 = icmp ne i32 %5, 0
  br i1 %6, label %7, label %9

7:                                                ; preds = %1
  invoke void @_ZN2cv5utils5trace7details6Region7destroyEv(ptr noundef nonnull align 8 dereferenceable(12) %3)
          to label %8 unwind label %10

8:                                                ; preds = %7
  br label %9

9:                                                ; preds = %8, %1
  ret void

10:                                               ; preds = %7
  %11 = landingpad { ptr, i32 }
          catch ptr null
  %12 = extractvalue { ptr, i32 } %11, 0
  call void @__clang_call_terminate(ptr %12) #12
  unreachable
}

; Function Attrs: mustprogress nounwind uwtable
define internal void @_ZNK2cv3hal12cpu_baseline12_GLOBAL__N_18Gray2RGBItEclEPKtPti(ptr noundef nonnull align 4 dereferenceable(4) %0, ptr noundef %1, ptr noundef %2, i32 noundef %3) #2 align 2 {
  %5 = alloca ptr, align 8
  %6 = alloca ptr, align 8
  %7 = alloca ptr, align 8
  %8 = alloca i32, align 4
  %9 = alloca i32, align 4
  %10 = alloca i32, align 4
  %11 = alloca i16, align 2
  store ptr %0, ptr %5, align 8
  store ptr %1, ptr %6, align 8
  store ptr %2, ptr %7, align 8
  store i32 %3, ptr %8, align 4
  %12 = load ptr, ptr %5, align 8
  %13 = getelementptr inbounds %"struct.cv::hal::cpu_baseline::(anonymous namespace)::Gray2RGB.5", ptr %12, i32 0, i32 0
  %14 = load i32, ptr %13, align 4
  store i32 %14, ptr %9, align 4
  store i32 0, ptr %10, align 4
  %15 = call noundef zeroext i16 @_ZN2cv4impl12_GLOBAL__N_112ColorChannelItE3maxEv()
  store i16 %15, ptr %11, align 2
  br label %16

16:                                               ; preds = %37, %4
  %17 = load i32, ptr %10, align 4
  %18 = load i32, ptr %8, align 4
  %19 = icmp slt i32 %17, %18
  br i1 %19, label %20, label %46

20:                                               ; preds = %16
  %21 = load ptr, ptr %6, align 8
  %22 = getelementptr inbounds i16, ptr %21, i64 0
  %23 = load i16, ptr %22, align 2
  %24 = load ptr, ptr %7, align 8
  %25 = getelementptr inbounds i16, ptr %24, i64 2
  store i16 %23, ptr %25, align 2
  %26 = load ptr, ptr %7, align 8
  %27 = getelementptr inbounds i16, ptr %26, i64 1
  store i16 %23, ptr %27, align 2
  %28 = load ptr, ptr %7, align 8
  %29 = getelementptr inbounds i16, ptr %28, i64 0
  store i16 %23, ptr %29, align 2
  %30 = load i32, ptr %9, align 4
  %31 = icmp eq i32 %30, 4
  br i1 %31, label %32, label %36

32:                                               ; preds = %20
  %33 = load i16, ptr %11, align 2
  %34 = load ptr, ptr %7, align 8
  %35 = getelementptr inbounds i16, ptr %34, i64 3
  store i16 %33, ptr %35, align 2
  br label %36

36:                                               ; preds = %32, %20
  br label %37

37:                                               ; preds = %36
  %38 = load i32, ptr %10, align 4
  %39 = add nsw i32 %38, 1
  store i32 %39, ptr %10, align 4
  %40 = load ptr, ptr %6, align 8
  %41 = getelementptr inbounds i16, ptr %40, i32 1
  store ptr %41, ptr %6, align 8
  %42 = load i32, ptr %9, align 4
  %43 = load ptr, ptr %7, align 8
  %44 = sext i32 %42 to i64
  %45 = getelementptr inbounds i16, ptr %43, i64 %44
  store ptr %45, ptr %7, align 8
  br label %16, !llvm.loop !27

46:                                               ; preds = %16
  ret void
}

; Function Attrs: mustprogress uwtable
define internal void @_ZNK2cv4impl12_GLOBAL__N_120CvtColorLoop_InvokerINS_3hal12cpu_baseline12_GLOBAL__N_18Gray2RGBItEEEclERKNS_5RangeE(ptr noundef nonnull align 8 dereferenceable(56) %0, ptr noundef nonnull align 4 dereferenceable(8) %1) unnamed_addr #0 align 2 personality ptr @__gxx_personality_v0 {
  %3 = alloca ptr, align 8
  %4 = alloca ptr, align 8
  %5 = alloca %"class.cv::utils::trace::details::Region", align 8
  %6 = alloca ptr, align 8
  %7 = alloca ptr, align 8
  %8 = alloca i32, align 4
  %9 = alloca ptr, align 8
  %10 = alloca i32, align 4
  store ptr %0, ptr %3, align 8
  store ptr %1, ptr %4, align 8
  %11 = load ptr, ptr %3, align 8
  call void @_ZN2cv5utils5trace7details6RegionC1ERKNS3_21LocationStaticStorageE(ptr noundef nonnull align 8 dereferenceable(12) %5, ptr noundef nonnull align 8 dereferenceable(32) @_ZZNK2cv4impl12_GLOBAL__N_120CvtColorLoop_InvokerINS_3hal12cpu_baseline12_GLOBAL__N_18Gray2RGBItEEEclERKNS_5RangeEE25__cv_trace_location_fn146)
  %12 = getelementptr inbounds %"class.cv::impl::(anonymous namespace)::CvtColorLoop_Invoker.22", ptr %11, i32 0, i32 1
  %13 = load ptr, ptr %12, align 8
  %14 = load ptr, ptr %4, align 8
  %15 = getelementptr inbounds %"class.cv::Range", ptr %14, i32 0, i32 0
  %16 = load i32, ptr %15, align 4
  %17 = sext i32 %16 to i64
  %18 = getelementptr inbounds %"class.cv::impl::(anonymous namespace)::CvtColorLoop_Invoker.22", ptr %11, i32 0, i32 2
  %19 = load i64, ptr %18, align 8
  %20 = mul i64 %17, %19
  %21 = getelementptr inbounds i8, ptr %13, i64 %20
  store ptr %21, ptr %6, align 8
  %22 = getelementptr inbounds %"class.cv::impl::(anonymous namespace)::CvtColorLoop_Invoker.22", ptr %11, i32 0, i32 3
  %23 = load ptr, ptr %22, align 8
  %24 = load ptr, ptr %4, align 8
  %25 = getelementptr inbounds %"class.cv::Range", ptr %24, i32 0, i32 0
  %26 = load i32, ptr %25, align 4
  %27 = sext i32 %26 to i64
  %28 = getelementptr inbounds %"class.cv::impl::(anonymous namespace)::CvtColorLoop_Invoker.22", ptr %11, i32 0, i32 4
  %29 = load i64, ptr %28, align 8
  %30 = mul i64 %27, %29
  %31 = getelementptr inbounds i8, ptr %23, i64 %30
  store ptr %31, ptr %7, align 8
  %32 = load ptr, ptr %4, align 8
  %33 = getelementptr inbounds %"class.cv::Range", ptr %32, i32 0, i32 0
  %34 = load i32, ptr %33, align 4
  store i32 %34, ptr %8, align 4
  br label %35

35:                                               ; preds = %49, %2
  %36 = load i32, ptr %8, align 4
  %37 = load ptr, ptr %4, align 8
  %38 = getelementptr inbounds %"class.cv::Range", ptr %37, i32 0, i32 1
  %39 = load i32, ptr %38, align 4
  %40 = icmp slt i32 %36, %39
  br i1 %40, label %41, label %64

41:                                               ; preds = %35
  %42 = getelementptr inbounds %"class.cv::impl::(anonymous namespace)::CvtColorLoop_Invoker.22", ptr %11, i32 0, i32 6
  %43 = load ptr, ptr %42, align 8
  %44 = load ptr, ptr %6, align 8
  %45 = load ptr, ptr %7, align 8
  %46 = getelementptr inbounds %"class.cv::impl::(anonymous namespace)::CvtColorLoop_Invoker.22", ptr %11, i32 0, i32 5
  %47 = load i32, ptr %46, align 8
  invoke void @_ZNK2cv3hal12cpu_baseline12_GLOBAL__N_18Gray2RGBItEclEPKtPti(ptr noundef nonnull align 4 dereferenceable(4) %43, ptr noundef %44, ptr noundef %45, i32 noundef %47)
          to label %48 unwind label %60

48:                                               ; preds = %41
  br label %49

49:                                               ; preds = %48
  %50 = load i32, ptr %8, align 4
  %51 = add nsw i32 %50, 1
  store i32 %51, ptr %8, align 4
  %52 = getelementptr inbounds %"class.cv::impl::(anonymous namespace)::CvtColorLoop_Invoker.22", ptr %11, i32 0, i32 2
  %53 = load i64, ptr %52, align 8
  %54 = load ptr, ptr %6, align 8
  %55 = getelementptr inbounds i8, ptr %54, i64 %53
  store ptr %55, ptr %6, align 8
  %56 = getelementptr inbounds %"class.cv::impl::(anonymous namespace)::CvtColorLoop_Invoker.22", ptr %11, i32 0, i32 4
  %57 = load i64, ptr %56, align 8
  %58 = load ptr, ptr %7, align 8
  %59 = getelementptr inbounds i8, ptr %58, i64 %57
  store ptr %59, ptr %7, align 8
  br label %35, !llvm.loop !26

60:                                               ; preds = %41
  %61 = landingpad { ptr, i32 }
          cleanup
  %62 = extractvalue { ptr, i32 } %61, 0
  store ptr %62, ptr %9, align 8
  %63 = extractvalue { ptr, i32 } %61, 1
  store i32 %63, ptr %10, align 4
  call void @_ZN2cv5utils5trace7details6RegionD2Ev(ptr noundef nonnull align 8 dereferenceable(12) %5) #10
  br label %65

64:                                               ; preds = %35
  call void @_ZN2cv5utils5trace7details6RegionD2Ev(ptr noundef nonnull align 8 dereferenceable(12) %5) #10
  ret void

65:                                               ; preds = %60
  %66 = load ptr, ptr %9, align 8
  %67 = load i32, ptr %10, align 4
  %68 = insertvalue { ptr, i32 } poison, ptr %66, 0
  %69 = insertvalue { ptr, i32 } %68, i32 %67, 1
  resume { ptr, i32 } %69
}