; Function Attrs: mustprogress uwtable
define internal void @_ZNK2cv4impl12_GLOBAL__N_120CvtColorLoop_InvokerINS_3hal12cpu_baseline12_GLOBAL__N_18Gray2RGBItEEEclERKNS_5RangeE(ptr nocapture noundef nonnull readonly align 8 dereferenceable(56) %0, ptr nocapture noundef nonnull readonly align 4 dereferenceable(8) %1) unnamed_addr #0 align 2 personality ptr @__gxx_personality_v0 {
  %3 = alloca %"class.cv::utils::trace::details::Region", align 8
  call void @_ZN2cv5utils5trace7details6RegionC1ERKNS3_21LocationStaticStorageE(ptr noundef nonnull align 8 dereferenceable(12) %3, ptr noundef nonnull align 8 dereferenceable(32) @_ZZNK2cv4impl12_GLOBAL__N_120CvtColorLoop_InvokerINS_3hal12cpu_baseline12_GLOBAL__N_18Gray2RGBItEEEclERKNS_5RangeEE25__cv_trace_location_fn146)
  %4 = load i32, ptr %1, align 4
  %5 = getelementptr inbounds i8, ptr %0, i64 16
  %6 = getelementptr inbounds i8, ptr %0, i64 32
  %7 = getelementptr inbounds i8, ptr %1, i64 4
  %8 = load i32, ptr %7, align 4
  %9 = icmp slt i32 %4, %8
  br i1 %9, label %.lr.ph, label %._crit_edge

.lr.ph:                                           ; preds = %2
  %10 = getelementptr inbounds i8, ptr %0, i64 40
  %11 = getelementptr inbounds i8, ptr %0, i64 48
  %12 = load i32, ptr %10, align 8
  %13 = icmp sgt i32 %12, 0
  br i1 %13, label %.lr.ph.split.preheader, label %._crit_edge

.lr.ph.split.preheader:                           ; preds = %.lr.ph
  %14 = getelementptr inbounds i8, ptr %0, i64 24
  %15 = load ptr, ptr %14, align 8
  %16 = load i64, ptr %6, align 8
  %17 = sext i32 %4 to i64
  %18 = mul i64 %16, %17
  %19 = getelementptr inbounds i8, ptr %15, i64 %18
  %20 = getelementptr inbounds i8, ptr %0, i64 8
  %21 = load ptr, ptr %20, align 8
  %22 = load i64, ptr %5, align 8
  %23 = mul i64 %22, %17
  %24 = getelementptr inbounds i8, ptr %21, i64 %23
  br label %.lr.ph.split

.lr.ph.split:                                     ; preds = %.lr.ph.split.preheader, %_ZNK2cv3hal12cpu_baseline12_GLOBAL__N_18Gray2RGBItEclEPKtPti.exit
  %.015 = phi i32 [ %42, %_ZNK2cv3hal12cpu_baseline12_GLOBAL__N_18Gray2RGBItEclEPKtPti.exit ], [ %4, %.lr.ph.split.preheader ]
  %.01014 = phi ptr [ %46, %_ZNK2cv3hal12cpu_baseline12_GLOBAL__N_18Gray2RGBItEclEPKtPti.exit ], [ %19, %.lr.ph.split.preheader ]
  %.01113 = phi ptr [ %44, %_ZNK2cv3hal12cpu_baseline12_GLOBAL__N_18Gray2RGBItEclEPKtPti.exit ], [ %24, %.lr.ph.split.preheader ]
  %25 = load i32, ptr %10, align 8
  %26 = icmp sgt i32 %25, 0
  br i1 %26, label %.lr.ph.i, label %_ZNK2cv3hal12cpu_baseline12_GLOBAL__N_18Gray2RGBItEclEPKtPti.exit

.lr.ph.i:                                         ; preds = %.lr.ph.split
  %27 = load ptr, ptr %11, align 8
  %.val = load i32, ptr %27, align 4
  %28 = icmp eq i32 %.val, 4
  %29 = sext i32 %.val to i64
  br i1 %28, label %.lr.ph.split.us.i, label %.lr.ph.split.i

.lr.ph.split.us.i:                                ; preds = %.lr.ph.i, %.lr.ph.split.us.i
  %.03.us.i = phi ptr [ %34, %.lr.ph.split.us.i ], [ %.01113, %.lr.ph.i ]
  %.0132.us.i = phi i32 [ %33, %.lr.ph.split.us.i ], [ 0, %.lr.ph.i ]
  %.0141.us.i = phi ptr [ %35, %.lr.ph.split.us.i ], [ %.01014, %.lr.ph.i ]
  %30 = load i16, ptr %.03.us.i, align 2
  %31 = insertelement <4 x i16> <i16 poison, i16 -1, i16 poison, i16 poison>, i16 %30, i64 0
  %32 = shufflevector <4 x i16> %31, <4 x i16> poison, <4 x i32> <i32 0, i32 0, i32 0, i32 1>
  store <4 x i16> %32, ptr %.0141.us.i, align 2
  %33 = add nuw nsw i32 %.0132.us.i, 1
  %34 = getelementptr inbounds i8, ptr %.03.us.i, i64 2
  %35 = getelementptr inbounds i16, ptr %.0141.us.i, i64 %29
  %exitcond5.not.i = icmp eq i32 %33, %25
  br i1 %exitcond5.not.i, label %_ZNK2cv3hal12cpu_baseline12_GLOBAL__N_18Gray2RGBItEclEPKtPti.exit, label %.lr.ph.split.us.i, !llvm.loop !74

.lr.ph.split.i:                                   ; preds = %.lr.ph.i, %.lr.ph.split.i
  %.03.i = phi ptr [ %40, %.lr.ph.split.i ], [ %.01113, %.lr.ph.i ]
  %.0132.i = phi i32 [ %39, %.lr.ph.split.i ], [ 0, %.lr.ph.i ]
  %.0141.i = phi ptr [ %41, %.lr.ph.split.i ], [ %.01014, %.lr.ph.i ]
  %36 = load i16, ptr %.03.i, align 2
  %37 = getelementptr inbounds i8, ptr %.0141.i, i64 4
  store i16 %36, ptr %37, align 2
  %38 = getelementptr inbounds i8, ptr %.0141.i, i64 2
  store i16 %36, ptr %38, align 2
  store i16 %36, ptr %.0141.i, align 2
  %39 = add nuw nsw i32 %.0132.i, 1
  %40 = getelementptr inbounds i8, ptr %.03.i, i64 2
  %41 = getelementptr inbounds i16, ptr %.0141.i, i64 %29
  %exitcond.not.i = icmp eq i32 %39, %25
  br i1 %exitcond.not.i, label %_ZNK2cv3hal12cpu_baseline12_GLOBAL__N_18Gray2RGBItEclEPKtPti.exit, label %.lr.ph.split.i, !llvm.loop !74

_ZNK2cv3hal12cpu_baseline12_GLOBAL__N_18Gray2RGBItEclEPKtPti.exit: ; preds = %.lr.ph.split.i, %.lr.ph.split.us.i, %.lr.ph.split
  %42 = add nsw i32 %.015, 1
  %43 = load i64, ptr %5, align 8
  %44 = getelementptr inbounds i8, ptr %.01113, i64 %43
  %45 = load i64, ptr %6, align 8
  %46 = getelementptr inbounds i8, ptr %.01014, i64 %45
  %47 = load i32, ptr %7, align 4
  %48 = icmp slt i32 %42, %47
  br i1 %48, label %.lr.ph.split, label %._crit_edge, !llvm.loop !75

._crit_edge:                                      ; preds = %_ZNK2cv3hal12cpu_baseline12_GLOBAL__N_18Gray2RGBItEclEPKtPti.exit, %.lr.ph, %2
  %49 = getelementptr inbounds i8, ptr %3, i64 8
  %50 = load i32, ptr %49, align 8
  %.not.i = icmp eq i32 %50, 0
  br i1 %.not.i, label %_ZN2cv5utils5trace7details6RegionD2Ev.exit, label %51

51:                                               ; preds = %._crit_edge
  invoke void @_ZN2cv5utils5trace7details6Region7destroyEv(ptr noundef nonnull align 8 dereferenceable(12) %3)
          to label %_ZN2cv5utils5trace7details6RegionD2Ev.exit unwind label %52

52:                                               ; preds = %51
  %53 = landingpad { ptr, i32 }
          catch ptr null
  %54 = extractvalue { ptr, i32 } %53, 0
  call void @__clang_call_terminate(ptr %54) #13
  unreachable

_ZN2cv5utils5trace7details6RegionD2Ev.exit:       ; preds = %._crit_edge, %51
  ret void
}